; Function Attrs: mustprogress nounwind uwtable
define void @_ZN3gmx32KeyValueTreeTransformRuleBuilderD2Ev(ptr nocapture noundef nonnull align 8 dereferenceable(16) %0) unnamed_addr #6 align 2 personality ptr @__gxx_personality_v0 {
  %2 = tail call noundef i32 @_ZSt19uncaught_exceptionsv() #28
  %.not = icmp eq i32 %2, 0
  br i1 %.not, label %3, label %7

3:                                                ; preds = %1
  %4 = getelementptr inbounds i8, ptr %0, i64 8
  %5 = load ptr, ptr %4, align 8
  %6 = load ptr, ptr %0, align 8
  invoke void @_ZN3gmx32KeyValueTreeTransformRuleBuilder4Data10createRuleEPNS_8internal27KeyValueTreeTransformerImplE(ptr noundef nonnull align 8 dereferenceable(117) %5, ptr noundef %6)
          to label %7 unwind label %10

7:                                                ; preds = %3, %1
  %8 = getelementptr inbounds i8, ptr %0, i64 8
  %9 = load ptr, ptr %8, align 8
  %.not.i = icmp eq ptr %9, null
  br i1 %.not.i, label %_ZNSt10unique_ptrIN3gmx32KeyValueTreeTransformRuleBuilder4DataESt14default_deleteIS2_EED2Ev.exit, label %_ZNKSt14default_deleteIN3gmx32KeyValueTreeTransformRuleBuilder4DataEEclEPS2_.exit.i

_ZNKSt14default_deleteIN3gmx32KeyValueTreeTransformRuleBuilder4DataEEclEPS2_.exit.i: ; preds = %7
  tail call void @_ZN3gmx32KeyValueTreeTransformRuleBuilder4DataD2Ev(ptr noundef nonnull align 8 dereferenceable(117) %9) #26
  tail call void @_ZdlPv(ptr noundef nonnull %9) #25
  br label %_ZNSt10unique_ptrIN3gmx32KeyValueTreeTransformRuleBuilder4DataESt14default_deleteIS2_EED2Ev.exit

_ZNSt10unique_ptrIN3gmx32KeyValueTreeTransformRuleBuilder4DataESt14default_deleteIS2_EED2Ev.exit: ; preds = %7, %_ZNKSt14default_deleteIN3gmx32KeyValueTreeTransformRuleBuilder4DataEEclEPS2_.exit.i
  store ptr null, ptr %8, align 8
  ret void

10:                                               ; preds = %3
  %11 = landingpad { ptr, i32 }
          catch ptr null
  %12 = extractvalue { ptr, i32 } %11, 0
  tail call void @__clang_call_terminate(ptr %12) #23
  unreachable
}